target datalayout = "e-m:e-p270:32:32-p271:32:32-p272:64:64-i64:64-i128:128-f80:128-n8:16:32:64-S128"
target triple = "x86_64-pc-linux-gnu"

%struct.Elf32_Shdr = type { i32, i32, i32, i32, i32, i32, i32, i32, i32, i32 }
%struct.Elf32_Sym = type { i32, i32, i32, i8, i8, i16 }

@rt_sigreturn_sym = internal global ptr null, align 8
@sigreturn_sym = internal global ptr null, align 8
@sigreturn_addr = internal global i32 0, align 4
@rt_sigreturn_addr = internal global i32 0, align 4

; Function Attrs: nounwind uwtable
define internal void @elf32_bswap_sym(ptr noundef %0) #0 {
  %2 = alloca ptr, align 8
  store ptr %0, ptr %2, align 8, !tbaa !24
  %3 = load ptr, ptr %2, align 8, !tbaa !24
  %4 = getelementptr inbounds nuw %struct.Elf32_Sym, ptr %3, i32 0, i32 0
  %5 = load i32, ptr %4, align 4, !tbaa !90
  %6 = call i32 @llvm.bswap.i32(i32 %5)
  %7 = load ptr, ptr %2, align 8, !tbaa !24
  %8 = getelementptr inbounds nuw %struct.Elf32_Sym, ptr %7, i32 0, i32 0
  store i32 %6, ptr %8, align 4, !tbaa !90
  %9 = load ptr, ptr %2, align 8, !tbaa !24
  %10 = getelementptr inbounds nuw %struct.Elf32_Sym, ptr %9, i32 0, i32 1
  %11 = load i32, ptr %10, align 4, !tbaa !92
  %12 = call i32 @llvm.bswap.i32(i32 %11)
  %13 = load ptr, ptr %2, align 8, !tbaa !24
  %14 = getelementptr inbounds nuw %struct.Elf32_Sym, ptr %13, i32 0, i32 1
  store i32 %12, ptr %14, align 4, !tbaa !92
  %15 = load ptr, ptr %2, align 8, !tbaa !24
  %16 = getelementptr inbounds nuw %struct.Elf32_Sym, ptr %15, i32 0, i32 2
  %17 = load i32, ptr %16, align 4, !tbaa !102
  %18 = call i32 @llvm.bswap.i32(i32 %17)
  %19 = load ptr, ptr %2, align 8, !tbaa !24
  %20 = getelementptr inbounds nuw %struct.Elf32_Sym, ptr %19, i32 0, i32 2
  store i32 %18, ptr %20, align 4, !tbaa !102
  %21 = load ptr, ptr %2, align 8, !tbaa !24
  %22 = getelementptr inbounds nuw %struct.Elf32_Sym, ptr %21, i32 0, i32 5
  %23 = load i16, ptr %22, align 2, !tbaa !103
  %24 = call i16 @llvm.bswap.i16(i16 %23)
  %25 = load ptr, ptr %2, align 8, !tbaa !24
  %26 = getelementptr inbounds nuw %struct.Elf32_Sym, ptr %25, i32 0, i32 5
  store i16 %24, ptr %26, align 2, !tbaa !103
  ret void
}

; Function Attrs: nounwind uwtable
define internal void @elf32_search_symtab(ptr noundef %0, i32 noundef %1, ptr noundef %2, i1 noundef zeroext %3) #0 {
  %5 = alloca ptr, align 8
  %6 = alloca i32, align 4
  %7 = alloca ptr, align 8
  %8 = alloca i8, align 1
  %9 = alloca i32, align 4
  %10 = alloca ptr, align 8
  %11 = alloca i32, align 4
  %12 = alloca ptr, align 8
  %13 = alloca i32, align 4
  %14 = alloca ptr, align 8
  %15 = alloca %struct.Elf32_Sym, align 4
  store ptr %0, ptr %5, align 8, !tbaa !24
  store i32 %1, ptr %6, align 4, !tbaa !4
  store ptr %2, ptr %7, align 8, !tbaa !24
  %16 = zext i1 %3 to i8
  store i8 %16, ptr %8, align 1, !tbaa !18
  call void @llvm.lifetime.start.p0(i64 4, ptr %9) #10
  %17 = load ptr, ptr %5, align 8, !tbaa !24
  %18 = load i32, ptr %6, align 4, !tbaa !4
  %19 = zext i32 %18 to i64
  %20 = getelementptr inbounds nuw %struct.Elf32_Shdr, ptr %17, i64 %19
  %21 = getelementptr inbounds nuw %struct.Elf32_Shdr, ptr %20, i32 0, i32 6
  %22 = load i32, ptr %21, align 4, !tbaa !89
  store i32 %22, ptr %9, align 4, !tbaa !4
  call void @llvm.lifetime.start.p0(i64 8, ptr %10) #10
  %23 = load ptr, ptr %7, align 8, !tbaa !24
  %24 = load ptr, ptr %5, align 8, !tbaa !24
  %25 = load i32, ptr %6, align 4, !tbaa !4
  %26 = zext i32 %25 to i64
  %27 = getelementptr inbounds nuw %struct.Elf32_Shdr, ptr %24, i64 %26
  %28 = getelementptr inbounds nuw %struct.Elf32_Shdr, ptr %27, i32 0, i32 4
  %29 = load i32, ptr %28, align 4, !tbaa !49
  %30 = zext i32 %29 to i64
  %31 = getelementptr inbounds nuw i8, ptr %23, i64 %30
  store ptr %31, ptr %10, align 8, !tbaa !24
  call void @llvm.lifetime.start.p0(i64 4, ptr %11) #10
  %32 = load ptr, ptr %5, align 8, !tbaa !24
  %33 = load i32, ptr %6, align 4, !tbaa !4
  %34 = zext i32 %33 to i64
  %35 = getelementptr inbounds nuw %struct.Elf32_Shdr, ptr %32, i64 %34
  %36 = getelementptr inbounds nuw %struct.Elf32_Shdr, ptr %35, i32 0, i32 5
  %37 = load i32, ptr %36, align 4, !tbaa !50
  %38 = zext i32 %37 to i64
  %39 = udiv i64 %38, 16
  %40 = trunc i64 %39 to i32
  store i32 %40, ptr %11, align 4, !tbaa !4
  call void @llvm.lifetime.start.p0(i64 8, ptr %12) #10
  %41 = load ptr, ptr %7, align 8, !tbaa !24
  %42 = load ptr, ptr %5, align 8, !tbaa !24
  %43 = load i32, ptr %9, align 4, !tbaa !4
  %44 = zext i32 %43 to i64
  %45 = getelementptr inbounds nuw %struct.Elf32_Shdr, ptr %42, i64 %44
  %46 = getelementptr inbounds nuw %struct.Elf32_Shdr, ptr %45, i32 0, i32 4
  %47 = load i32, ptr %46, align 4, !tbaa !49
  %48 = zext i32 %47 to i64
  %49 = getelementptr inbounds nuw i8, ptr %41, i64 %48
  store ptr %49, ptr %12, align 8, !tbaa !11
  call void @llvm.lifetime.start.p0(i64 4, ptr %13) #10
  store i32 0, ptr %13, align 4, !tbaa !4
  br label %50

50:                                               ; preds = %91, %4
  %51 = load i32, ptr %13, align 4, !tbaa !4
  %52 = load i32, ptr %11, align 4, !tbaa !4
  %53 = icmp ult i32 %51, %52
  br i1 %53, label %55, label %54

54:                                               ; preds = %50
  call void @llvm.lifetime.end.p0(i64 4, ptr %13) #10
  br label %94

55:                                               ; preds = %50
  call void @llvm.lifetime.start.p0(i64 8, ptr %14) #10
  call void @llvm.lifetime.start.p0(i64 16, ptr %15) #10
  %56 = load ptr, ptr %10, align 8, !tbaa !24
  %57 = load i32, ptr %13, align 4, !tbaa !4
  %58 = zext i32 %57 to i64
  %59 = getelementptr inbounds nuw %struct.Elf32_Sym, ptr %56, i64 %58
  call void @llvm.memcpy.p0.p0.i64(ptr align 4 %15, ptr align 4 %59, i64 16, i1 false)
  %60 = load i8, ptr %8, align 1, !tbaa !18, !range !20, !noundef !21
  %61 = trunc i8 %60 to i1
  br i1 %61, label %62, label %63

62:                                               ; preds = %55
  call void @elf32_bswap_sym(ptr noundef %15)
  br label %63

63:                                               ; preds = %62, %55
  %64 = load ptr, ptr %12, align 8, !tbaa !11
  %65 = getelementptr inbounds nuw %struct.Elf32_Sym, ptr %15, i32 0, i32 0
  %66 = load i32, ptr %65, align 4, !tbaa !90
  %67 = zext i32 %66 to i64
  %68 = getelementptr inbounds nuw i8, ptr %64, i64 %67
  store ptr %68, ptr %14, align 8, !tbaa !11
  %69 = load ptr, ptr @sigreturn_sym, align 8, !tbaa !11
  %70 = icmp ne ptr %69, null
  br i1 %70, label %71, label %79

71:                                               ; preds = %63
  %72 = load ptr, ptr @sigreturn_sym, align 8, !tbaa !11
  %73 = load ptr, ptr %14, align 8, !tbaa !11
  %74 = call i32 @strcmp(ptr noundef %72, ptr noundef %73) #14
  %75 = icmp eq i32 %74, 0
  br i1 %75, label %76, label %79

76:                                               ; preds = %71
  %77 = getelementptr inbounds nuw %struct.Elf32_Sym, ptr %15, i32 0, i32 1
  %78 = load i32, ptr %77, align 4, !tbaa !92
  store i32 %78, ptr @sigreturn_addr, align 4, !tbaa !4
  br label %79

79:                                               ; preds = %76, %71, %63
  %80 = load ptr, ptr @rt_sigreturn_sym, align 8, !tbaa !11
  %81 = icmp ne ptr %80, null
  br i1 %81, label %82, label %90

82:                                               ; preds = %79
  %83 = load ptr, ptr @rt_sigreturn_sym, align 8, !tbaa !11
  %84 = load ptr, ptr %14, align 8, !tbaa !11
  %85 = call i32 @strcmp(ptr noundef %83, ptr noundef %84) #14
  %86 = icmp eq i32 %85, 0
  br i1 %86, label %87, label %90

87:                                               ; preds = %82
  %88 = getelementptr inbounds nuw %struct.Elf32_Sym, ptr %15, i32 0, i32 1
  %89 = load i32, ptr %88, align 4, !tbaa !92
  store i32 %89, ptr @rt_sigreturn_addr, align 4, !tbaa !4
  br label %90

90:                                               ; preds = %87, %82, %79
  call void @llvm.lifetime.end.p0(i64 16, ptr %15) #10
  call void @llvm.lifetime.end.p0(i64 8, ptr %14) #10
  br label %91

91:                                               ; preds = %90
  %92 = load i32, ptr %13, align 4, !tbaa !4
  %93 = add i32 %92, 1
  store i32 %93, ptr %13, align 4, !tbaa !4
  br label %50, !llvm.loop !93

94:                                               ; preds = %54
  call void @llvm.lifetime.end.p0(i64 8, ptr %12) #10
  call void @llvm.lifetime.end.p0(i64 4, ptr %11) #10
  call void @llvm.lifetime.end.p0(i64 8, ptr %10) #10
  call void @llvm.lifetime.end.p0(i64 4, ptr %9) #10
  ret void
}