; Function Attrs: nofree nounwind memory(readwrite, argmem: read, inaccessiblemem: none) uwtable
define internal fastcc void @elf32_search_symtab(ptr noundef nonnull readonly captures(none) %0, i32 noundef range(i32 1, 0) %1, ptr noundef nonnull readonly captures(none) %2, i1 noundef zeroext %3) unnamed_addr #7 {
  %5 = zext i32 %1 to i64
  %6 = getelementptr inbounds nuw %struct.Elf32_Shdr, ptr %0, i64 %5
  %7 = getelementptr inbounds nuw i8, ptr %6, i64 24
  %8 = load i32, ptr %7, align 4, !tbaa !89
  %9 = getelementptr inbounds nuw i8, ptr %6, i64 16
  %10 = load i32, ptr %9, align 4, !tbaa !45
  %11 = zext i32 %10 to i64
  %12 = getelementptr inbounds nuw i8, ptr %2, i64 %11
  %13 = getelementptr inbounds nuw i8, ptr %6, i64 20
  %14 = load i32, ptr %13, align 4, !tbaa !46
  %15 = lshr i32 %14, 4
  %16 = zext i32 %8 to i64
  %17 = getelementptr inbounds nuw %struct.Elf32_Shdr, ptr %0, i64 %16, i32 4
  %18 = load i32, ptr %17, align 4, !tbaa !45
  %19 = zext i32 %18 to i64
  %20 = getelementptr inbounds nuw i8, ptr %2, i64 %19
  %.not37 = icmp ult i32 %14, 16
  br i1 %.not37, label %._crit_edge, label %.lr.ph

.lr.ph:                                           ; preds = %4
  %21 = load ptr, ptr @sigreturn_sym, align 8, !tbaa !4
  %.not = icmp eq ptr %21, null
  %22 = load ptr, ptr @rt_sigreturn_sym, align 8, !tbaa !4
  %.not20 = icmp eq ptr %22, null
  br i1 %.not, label %.lr.ph.split.us, label %.lr.ph.split

.lr.ph.split.us:                                  ; preds = %.lr.ph
  br i1 %.not20, label %._crit_edge, label %.lr.ph.split.us.split.preheader

.lr.ph.split.us.split.preheader:                  ; preds = %.lr.ph.split.us
  %wide.trip.count62 = zext nneg i32 %15 to i64
  br label %.lr.ph.split.us.split

.lr.ph.split.us.split:                            ; preds = %.lr.ph.split.us.split.preheader, %31
  %indvars.iv59 = phi i64 [ 0, %.lr.ph.split.us.split.preheader ], [ %indvars.iv.next60, %31 ]
  %23 = getelementptr inbounds nuw %struct.Elf32_Sym, ptr %12, i64 %indvars.iv59
  %.sroa.0.0.copyload.us = load i32, ptr %23, align 4
  %24 = tail call i32 @llvm.bswap.i32(i32 %.sroa.0.0.copyload.us)
  %.sroa.0.0.us = select i1 %3, i32 %24, i32 %.sroa.0.0.copyload.us
  %25 = zext i32 %.sroa.0.0.us to i64
  %26 = getelementptr inbounds nuw i8, ptr %20, i64 %25
  %27 = tail call i32 @strcmp(ptr noundef nonnull dereferenceable(1) %22, ptr noundef nonnull dereferenceable(1) %26) #17
  %28 = icmp eq i32 %27, 0
  br i1 %28, label %29, label %31

29:                                               ; preds = %.lr.ph.split.us.split
  %.sroa.6.0..sroa_idx.us = getelementptr inbounds nuw i8, ptr %23, i64 4
  %.sroa.6.0.copyload.us = load i32, ptr %.sroa.6.0..sroa_idx.us, align 4
  %30 = tail call i32 @llvm.bswap.i32(i32 %.sroa.6.0.copyload.us)
  %.sroa.6.0.us = select i1 %3, i32 %30, i32 %.sroa.6.0.copyload.us
  store i32 %.sroa.6.0.us, ptr @rt_sigreturn_addr, align 4, !tbaa !11
  br label %31

31:                                               ; preds = %29, %.lr.ph.split.us.split
  %indvars.iv.next60 = add nuw nsw i64 %indvars.iv59, 1
  %exitcond63.not = icmp eq i64 %indvars.iv.next60, %wide.trip.count62
  br i1 %exitcond63.not, label %._crit_edge, label %.lr.ph.split.us.split, !llvm.loop !94

.lr.ph.split:                                     ; preds = %.lr.ph
  %wide.trip.count57 = zext nneg i32 %15 to i64
  br i1 %.not20, label %.lr.ph.split.split.us, label %.lr.ph.split.split

.lr.ph.split.split.us:                            ; preds = %.lr.ph.split
  br i1 %3, label %.lr.ph.split.split.us.split.us, label %.lr.ph.split.split.us.split

.lr.ph.split.split.us.split.us:                   ; preds = %.lr.ph.split.split.us, %40
  %indvars.iv54 = phi i64 [ %indvars.iv.next55, %40 ], [ 0, %.lr.ph.split.split.us ]
  %32 = getelementptr inbounds nuw %struct.Elf32_Sym, ptr %12, i64 %indvars.iv54
  %.sroa.0.0.copyload.us27.us = load i32, ptr %32, align 4
  %33 = tail call i32 @llvm.bswap.i32(i32 %.sroa.0.0.copyload.us27.us)
  %34 = zext i32 %33 to i64
  %35 = getelementptr inbounds nuw i8, ptr %20, i64 %34
  %36 = tail call i32 @strcmp(ptr noundef nonnull dereferenceable(1) %21, ptr noundef nonnull dereferenceable(1) %35) #17
  %37 = icmp eq i32 %36, 0
  br i1 %37, label %38, label %40

38:                                               ; preds = %.lr.ph.split.split.us.split.us
  %.sroa.6.0..sroa_idx.us28.us = getelementptr inbounds nuw i8, ptr %32, i64 4
  %.sroa.6.0.copyload.us29.us = load i32, ptr %.sroa.6.0..sroa_idx.us28.us, align 4
  %39 = tail call i32 @llvm.bswap.i32(i32 %.sroa.6.0.copyload.us29.us)
  store i32 %39, ptr @sigreturn_addr, align 4, !tbaa !11
  br label %40

40:                                               ; preds = %.lr.ph.split.split.us.split.us, %38
  %indvars.iv.next55 = add nuw nsw i64 %indvars.iv54, 1
  %exitcond58.not = icmp eq i64 %indvars.iv.next55, %wide.trip.count57
  br i1 %exitcond58.not, label %._crit_edge, label %.lr.ph.split.split.us.split.us, !llvm.loop !94

.lr.ph.split.split.us.split:                      ; preds = %.lr.ph.split.split.us, %47
  %indvars.iv49 = phi i64 [ %indvars.iv.next50, %47 ], [ 0, %.lr.ph.split.split.us ]
  %41 = getelementptr inbounds nuw %struct.Elf32_Sym, ptr %12, i64 %indvars.iv49
  %.sroa.0.0.copyload.us27 = load i32, ptr %41, align 4
  %42 = zext i32 %.sroa.0.0.copyload.us27 to i64
  %43 = getelementptr inbounds nuw i8, ptr %20, i64 %42
  %44 = tail call i32 @strcmp(ptr noundef nonnull dereferenceable(1) %21, ptr noundef nonnull dereferenceable(1) %43) #17
  %45 = icmp eq i32 %44, 0
  br i1 %45, label %46, label %47

46:                                               ; preds = %.lr.ph.split.split.us.split
  %.sroa.6.0..sroa_idx.us28 = getelementptr inbounds nuw i8, ptr %41, i64 4
  %.sroa.6.0.copyload.us29 = load i32, ptr %.sroa.6.0..sroa_idx.us28, align 4
  store i32 %.sroa.6.0.copyload.us29, ptr @sigreturn_addr, align 4, !tbaa !11
  br label %47

47:                                               ; preds = %46, %.lr.ph.split.split.us.split
  %indvars.iv.next50 = add nuw nsw i64 %indvars.iv49, 1
  %exitcond53.not = icmp eq i64 %indvars.iv.next50, %wide.trip.count57
  br i1 %exitcond53.not, label %._crit_edge, label %.lr.ph.split.split.us.split, !llvm.loop !94

.lr.ph.split.split:                               ; preds = %.lr.ph.split
  br i1 %3, label %.lr.ph.split.split.split.us, label %.lr.ph.split.split.split

.lr.ph.split.split.split.us:                      ; preds = %.lr.ph.split.split, %60
  %indvars.iv44 = phi i64 [ %indvars.iv.next45, %60 ], [ 0, %.lr.ph.split.split ]
  %48 = getelementptr inbounds nuw %struct.Elf32_Sym, ptr %12, i64 %indvars.iv44
  %.sroa.0.0.copyload.us33 = load i32, ptr %48, align 4
  %.sroa.6.0..sroa_idx.us34 = getelementptr inbounds nuw i8, ptr %48, i64 4
  %.sroa.6.0.copyload.us35 = load i32, ptr %.sroa.6.0..sroa_idx.us34, align 4
  %49 = tail call i32 @llvm.bswap.i32(i32 %.sroa.0.0.copyload.us33)
  %50 = tail call i32 @llvm.bswap.i32(i32 %.sroa.6.0.copyload.us35)
  %51 = zext i32 %49 to i64
  %52 = getelementptr inbounds nuw i8, ptr %20, i64 %51
  %53 = tail call i32 @strcmp(ptr noundef nonnull dereferenceable(1) %21, ptr noundef nonnull dereferenceable(1) %52) #17
  %54 = icmp eq i32 %53, 0
  br i1 %54, label %55, label %56

55:                                               ; preds = %.lr.ph.split.split.split.us
  store i32 %50, ptr @sigreturn_addr, align 4, !tbaa !11
  br label %56

56:                                               ; preds = %.lr.ph.split.split.split.us, %55
  %57 = tail call i32 @strcmp(ptr noundef nonnull dereferenceable(1) %22, ptr noundef nonnull dereferenceable(1) %52) #17
  %58 = icmp eq i32 %57, 0
  br i1 %58, label %59, label %60

59:                                               ; preds = %56
  store i32 %50, ptr @rt_sigreturn_addr, align 4, !tbaa !11
  br label %60

60:                                               ; preds = %59, %56
  %indvars.iv.next45 = add nuw nsw i64 %indvars.iv44, 1
  %exitcond48.not = icmp eq i64 %indvars.iv.next45, %wide.trip.count57
  br i1 %exitcond48.not, label %._crit_edge, label %.lr.ph.split.split.split.us, !llvm.loop !94

._crit_edge:                                      ; preds = %71, %60, %47, %40, %31, %.lr.ph.split.us, %4
  ret void

.lr.ph.split.split.split:                         ; preds = %.lr.ph.split.split, %71
  %indvars.iv = phi i64 [ %indvars.iv.next, %71 ], [ 0, %.lr.ph.split.split ]
  %61 = getelementptr inbounds nuw %struct.Elf32_Sym, ptr %12, i64 %indvars.iv
  %.sroa.0.0.copyload = load i32, ptr %61, align 4
  %.sroa.6.0..sroa_idx = getelementptr inbounds nuw i8, ptr %61, i64 4
  %.sroa.6.0.copyload = load i32, ptr %.sroa.6.0..sroa_idx, align 4
  %62 = zext i32 %.sroa.0.0.copyload to i64
  %63 = getelementptr inbounds nuw i8, ptr %20, i64 %62
  %64 = tail call i32 @strcmp(ptr noundef nonnull dereferenceable(1) %21, ptr noundef nonnull dereferenceable(1) %63) #17
  %65 = icmp eq i32 %64, 0
  br i1 %65, label %66, label %67

66:                                               ; preds = %.lr.ph.split.split.split
  store i32 %.sroa.6.0.copyload, ptr @sigreturn_addr, align 4, !tbaa !11
  br label %67

67:                                               ; preds = %66, %.lr.ph.split.split.split
  %68 = tail call i32 @strcmp(ptr noundef nonnull dereferenceable(1) %22, ptr noundef nonnull dereferenceable(1) %63) #17
  %69 = icmp eq i32 %68, 0
  br i1 %69, label %70, label %71

70:                                               ; preds = %67
  store i32 %.sroa.6.0.copyload, ptr @rt_sigreturn_addr, align 4, !tbaa !11
  br label %71

71:                                               ; preds = %70, %67
  %indvars.iv.next = add nuw nsw i64 %indvars.iv, 1
  %exitcond.not = icmp eq i64 %indvars.iv.next, %wide.trip.count57
  br i1 %exitcond.not, label %._crit_edge, label %.lr.ph.split.split.split, !llvm.loop !94
}